target datalayout = "e-m:e-p270:32:32-p271:32:32-p272:64:64-i64:64-i128:128-f80:128-n8:16:32:64-S128"
target triple = "x86_64-pc-linux-gnu"

%struct.JSValue = type { %union.JSValueUnion, i64 }
%union.JSValueUnion = type { double }
%struct.JSRefCountHeader = type { i32 }
%struct.JSThreadState = type { %struct.list_head, %struct.list_head, %struct.list_head, %struct.list_head, i32, i32, ptr, ptr }
%struct.list_head = type { ptr, ptr }
%struct.JSOSRWHandler = type { %struct.list_head, i32, [2 x %struct.JSValue] }
%struct.JSOSSignalHandler = type { %struct.list_head, i32, %struct.JSValue }
%struct.JSOSTimer = type { %struct.list_head, i32, i64, %struct.JSValue }

; Function Attrs: nounwind uwtable
define internal void @JS_FreeValueRT(ptr noundef %0, i64 %1, i64 %2) #0 {
  %4 = alloca %struct.JSValue, align 8
  %5 = alloca ptr, align 8
  %6 = alloca ptr, align 8
  %7 = getelementptr inbounds { i64, i64 }, ptr %4, i32 0, i32 0
  store i64 %1, ptr %7, align 8
  %8 = getelementptr inbounds { i64, i64 }, ptr %4, i32 0, i32 1
  store i64 %2, ptr %8, align 8
  store ptr %0, ptr %5, align 8
  %9 = getelementptr inbounds %struct.JSValue, ptr %4, i32 0, i32 1
  %10 = load i64, ptr %9, align 8
  %11 = trunc i64 %10 to i32
  %12 = icmp uge i32 %11, -11
  br i1 %12, label %13, label %28

13:                                               ; preds = %3
  %14 = getelementptr inbounds %struct.JSValue, ptr %4, i32 0, i32 0
  %15 = load ptr, ptr %14, align 8
  store ptr %15, ptr %6, align 8
  %16 = load ptr, ptr %6, align 8
  %17 = getelementptr inbounds %struct.JSRefCountHeader, ptr %16, i32 0, i32 0
  %18 = load i32, ptr %17, align 4
  %19 = add i32 %18, -1
  store i32 %19, ptr %17, align 4
  %20 = icmp sle i32 %19, 0
  br i1 %20, label %21, label %27

21:                                               ; preds = %13
  %22 = load ptr, ptr %5, align 8
  %23 = getelementptr inbounds { i64, i64 }, ptr %4, i32 0, i32 0
  %24 = load i64, ptr %23, align 8
  %25 = getelementptr inbounds { i64, i64 }, ptr %4, i32 0, i32 1
  %26 = load i64, ptr %25, align 8
  call void @__JS_FreeValueRT(ptr noundef %22, i64 %24, i64 %26)
  br label %27

27:                                               ; preds = %21, %13
  br label %28

28:                                               ; preds = %27, %3
  ret void
}

; Function Attrs: nounwind uwtable
define internal void @list_del(ptr noundef %0) #0 {
  %2 = alloca ptr, align 8
  %3 = alloca ptr, align 8
  %4 = alloca ptr, align 8
  store ptr %0, ptr %2, align 8
  %5 = load ptr, ptr %2, align 8
  %6 = getelementptr inbounds %struct.list_head, ptr %5, i32 0, i32 0
  %7 = load ptr, ptr %6, align 8
  store ptr %7, ptr %3, align 8
  %8 = load ptr, ptr %2, align 8
  %9 = getelementptr inbounds %struct.list_head, ptr %8, i32 0, i32 1
  %10 = load ptr, ptr %9, align 8
  store ptr %10, ptr %4, align 8
  %11 = load ptr, ptr %4, align 8
  %12 = load ptr, ptr %3, align 8
  %13 = getelementptr inbounds %struct.list_head, ptr %12, i32 0, i32 1
  store ptr %11, ptr %13, align 8
  %14 = load ptr, ptr %3, align 8
  %15 = load ptr, ptr %4, align 8
  %16 = getelementptr inbounds %struct.list_head, ptr %15, i32 0, i32 0
  store ptr %14, ptr %16, align 8
  %17 = load ptr, ptr %2, align 8
  %18 = getelementptr inbounds %struct.list_head, ptr %17, i32 0, i32 0
  store ptr null, ptr %18, align 8
  %19 = load ptr, ptr %2, align 8
  %20 = getelementptr inbounds %struct.list_head, ptr %19, i32 0, i32 1
  store ptr null, ptr %20, align 8
  ret void
}

; Function Attrs: nounwind uwtable
define internal void @free_timer(ptr noundef %0, ptr noundef %1) #0 {
  %3 = alloca ptr, align 8
  %4 = alloca ptr, align 8
  store ptr %0, ptr %3, align 8
  store ptr %1, ptr %4, align 8
  %5 = load ptr, ptr %4, align 8
  %6 = getelementptr inbounds %struct.JSOSTimer, ptr %5, i32 0, i32 0
  call void @list_del(ptr noundef %6)
  %7 = load ptr, ptr %3, align 8
  %8 = load ptr, ptr %4, align 8
  %9 = getelementptr inbounds %struct.JSOSTimer, ptr %8, i32 0, i32 3
  %10 = getelementptr inbounds { i64, i64 }, ptr %9, i32 0, i32 0
  %11 = load i64, ptr %10, align 8
  %12 = getelementptr inbounds { i64, i64 }, ptr %9, i32 0, i32 1
  %13 = load i64, ptr %12, align 8
  call void @JS_FreeValueRT(ptr noundef %7, i64 %11, i64 %13)
  %14 = load ptr, ptr %3, align 8
  %15 = load ptr, ptr %4, align 8
  call void @js_free_rt(ptr noundef %14, ptr noundef %15)
  ret void
}

; Function Attrs: nounwind uwtable
define internal void @free_sh(ptr noundef %0, ptr noundef %1) #0 {
  %3 = alloca ptr, align 8
  %4 = alloca ptr, align 8
  store ptr %0, ptr %3, align 8
  store ptr %1, ptr %4, align 8
  %5 = load ptr, ptr %4, align 8
  %6 = getelementptr inbounds %struct.JSOSSignalHandler, ptr %5, i32 0, i32 0
  call void @list_del(ptr noundef %6)
  %7 = load ptr, ptr %3, align 8
  %8 = load ptr, ptr %4, align 8
  %9 = getelementptr inbounds %struct.JSOSSignalHandler, ptr %8, i32 0, i32 2
  %10 = getelementptr inbounds { i64, i64 }, ptr %9, i32 0, i32 0
  %11 = load i64, ptr %10, align 8
  %12 = getelementptr inbounds { i64, i64 }, ptr %9, i32 0, i32 1
  %13 = load i64, ptr %12, align 8
  call void @JS_FreeValueRT(ptr noundef %7, i64 %11, i64 %13)
  %14 = load ptr, ptr %3, align 8
  %15 = load ptr, ptr %4, align 8
  call void @js_free_rt(ptr noundef %14, ptr noundef %15)
  ret void
}

; Function Attrs: nounwind uwtable
define internal void @free_rw_handler(ptr noundef %0, ptr noundef %1) #0 {
  %3 = alloca ptr, align 8
  %4 = alloca ptr, align 8
  %5 = alloca i32, align 4
  store ptr %0, ptr %3, align 8
  store ptr %1, ptr %4, align 8
  %6 = load ptr, ptr %4, align 8
  %7 = getelementptr inbounds %struct.JSOSRWHandler, ptr %6, i32 0, i32 0
  call void @list_del(ptr noundef %7)
  store i32 0, ptr %5, align 4
  br label %8

8:                                                ; preds = %22, %2
  %9 = load i32, ptr %5, align 4
  %10 = icmp slt i32 %9, 2
  br i1 %10, label %11, label %25

11:                                               ; preds = %8
  %12 = load ptr, ptr %3, align 8
  %13 = load ptr, ptr %4, align 8
  %14 = getelementptr inbounds %struct.JSOSRWHandler, ptr %13, i32 0, i32 2
  %15 = load i32, ptr %5, align 4
  %16 = sext i32 %15 to i64
  %17 = getelementptr [2 x %struct.JSValue], ptr %14, i64 0, i64 %16
  %18 = getelementptr inbounds { i64, i64 }, ptr %17, i32 0, i32 0
  %19 = load i64, ptr %18, align 8
  %20 = getelementptr inbounds { i64, i64 }, ptr %17, i32 0, i32 1
  %21 = load i64, ptr %20, align 8
  call void @JS_FreeValueRT(ptr noundef %12, i64 %19, i64 %21)
  br label %22

22:                                               ; preds = %11
  %23 = load i32, ptr %5, align 4
  %24 = add i32 %23, 1
  store i32 %24, ptr %5, align 4
  br label %8, !llvm.loop !13

25:                                               ; preds = %8
  %26 = load ptr, ptr %3, align 8
  %27 = load ptr, ptr %4, align 8
  call void @js_free_rt(ptr noundef %26, ptr noundef %27)
  ret void
}

; Function Attrs: nounwind uwtable
define dso_local void @js_std_free_handlers(ptr noundef %0) #0 {
  %2 = alloca ptr, align 8
  %3 = alloca ptr, align 8
  %4 = alloca ptr, align 8
  %5 = alloca ptr, align 8
  %6 = alloca ptr, align 8
  %7 = alloca ptr, align 8
  %8 = alloca ptr, align 8
  store ptr %0, ptr %2, align 8
  %9 = load ptr, ptr %2, align 8
  %10 = call ptr @JS_GetRuntimeOpaque(ptr noundef %9)
  store ptr %10, ptr %3, align 8
  %11 = load ptr, ptr %3, align 8
  %12 = getelementptr inbounds %struct.JSThreadState, ptr %11, i32 0, i32 0
  %13 = getelementptr inbounds %struct.list_head, ptr %12, i32 0, i32 1
  %14 = load ptr, ptr %13, align 8
  store ptr %14, ptr %4, align 8
  %15 = load ptr, ptr %4, align 8
  %16 = getelementptr inbounds %struct.list_head, ptr %15, i32 0, i32 1
  %17 = load ptr, ptr %16, align 8
  store ptr %17, ptr %5, align 8
  br label %18

18:                                               ; preds = %28, %1
  %19 = load ptr, ptr %4, align 8
  %20 = load ptr, ptr %3, align 8
  %21 = getelementptr inbounds %struct.JSThreadState, ptr %20, i32 0, i32 0
  %22 = icmp ne ptr %19, %21
  br i1 %22, label %23, label %33

23:                                               ; preds = %18
  %24 = load ptr, ptr %4, align 8
  %25 = getelementptr i8, ptr %24, i64 0
  store ptr %25, ptr %6, align 8
  %26 = load ptr, ptr %2, align 8
  %27 = load ptr, ptr %6, align 8
  call void @free_rw_handler(ptr noundef %26, ptr noundef %27)
  br label %28

28:                                               ; preds = %23
  %29 = load ptr, ptr %5, align 8
  store ptr %29, ptr %4, align 8
  %30 = load ptr, ptr %4, align 8
  %31 = getelementptr inbounds %struct.list_head, ptr %30, i32 0, i32 1
  %32 = load ptr, ptr %31, align 8
  store ptr %32, ptr %5, align 8
  br label %18, !llvm.loop !10

33:                                               ; preds = %18
  %34 = load ptr, ptr %3, align 8
  %35 = getelementptr inbounds %struct.JSThreadState, ptr %34, i32 0, i32 1
  %36 = getelementptr inbounds %struct.list_head, ptr %35, i32 0, i32 1
  %37 = load ptr, ptr %36, align 8
  store ptr %37, ptr %4, align 8
  %38 = load ptr, ptr %4, align 8
  %39 = getelementptr inbounds %struct.list_head, ptr %38, i32 0, i32 1
  %40 = load ptr, ptr %39, align 8
  store ptr %40, ptr %5, align 8
  br label %41

41:                                               ; preds = %51, %33
  %42 = load ptr, ptr %4, align 8
  %43 = load ptr, ptr %3, align 8
  %44 = getelementptr inbounds %struct.JSThreadState, ptr %43, i32 0, i32 1
  %45 = icmp ne ptr %42, %44
  br i1 %45, label %46, label %56

46:                                               ; preds = %41
  %47 = load ptr, ptr %4, align 8
  %48 = getelementptr i8, ptr %47, i64 0
  store ptr %48, ptr %7, align 8
  %49 = load ptr, ptr %2, align 8
  %50 = load ptr, ptr %7, align 8
  call void @free_sh(ptr noundef %49, ptr noundef %50)
  br label %51

51:                                               ; preds = %46
  %52 = load ptr, ptr %5, align 8
  store ptr %52, ptr %4, align 8
  %53 = load ptr, ptr %4, align 8
  %54 = getelementptr inbounds %struct.list_head, ptr %53, i32 0, i32 1
  %55 = load ptr, ptr %54, align 8
  store ptr %55, ptr %5, align 8
  br label %41, !llvm.loop !11

56:                                               ; preds = %41
  %57 = load ptr, ptr %3, align 8
  %58 = getelementptr inbounds %struct.JSThreadState, ptr %57, i32 0, i32 2
  %59 = getelementptr inbounds %struct.list_head, ptr %58, i32 0, i32 1
  %60 = load ptr, ptr %59, align 8
  store ptr %60, ptr %4, align 8
  %61 = load ptr, ptr %4, align 8
  %62 = getelementptr inbounds %struct.list_head, ptr %61, i32 0, i32 1
  %63 = load ptr, ptr %62, align 8
  store ptr %63, ptr %5, align 8
  br label %64

64:                                               ; preds = %74, %56
  %65 = load ptr, ptr %4, align 8
  %66 = load ptr, ptr %3, align 8
  %67 = getelementptr inbounds %struct.JSThreadState, ptr %66, i32 0, i32 2
  %68 = icmp ne ptr %65, %67
  br i1 %68, label %69, label %79

69:                                               ; preds = %64
  %70 = load ptr, ptr %4, align 8
  %71 = getelementptr i8, ptr %70, i64 0
  store ptr %71, ptr %8, align 8
  %72 = load ptr, ptr %2, align 8
  %73 = load ptr, ptr %8, align 8
  call void @free_timer(ptr noundef %72, ptr noundef %73)
  br label %74

74:                                               ; preds = %69
  %75 = load ptr, ptr %5, align 8
  store ptr %75, ptr %4, align 8
  %76 = load ptr, ptr %4, align 8
  %77 = getelementptr inbounds %struct.list_head, ptr %76, i32 0, i32 1
  %78 = load ptr, ptr %77, align 8
  store ptr %78, ptr %5, align 8
  br label %64, !llvm.loop !12

79:                                               ; preds = %64
  %80 = load ptr, ptr %3, align 8
  %81 = getelementptr inbounds %struct.JSThreadState, ptr %80, i32 0, i32 6
  %82 = load ptr, ptr %81, align 8
  call void @js_free_message_pipe(ptr noundef %82)
  %83 = load ptr, ptr %3, align 8
  %84 = getelementptr inbounds %struct.JSThreadState, ptr %83, i32 0, i32 7
  %85 = load ptr, ptr %84, align 8
  call void @js_free_message_pipe(ptr noundef %85)
  %86 = load ptr, ptr %3, align 8
  call void @free(ptr noundef %86) #12
  %87 = load ptr, ptr %2, align 8
  call void @JS_SetRuntimeOpaque(ptr noundef %87, ptr noundef null)
  ret void
}