; Function Attrs: nounwind uwtable
define dso_local void @js_std_free_handlers(ptr noundef %0) local_unnamed_addr #0 {
  %2 = tail call ptr @JS_GetRuntimeOpaque(ptr noundef %0) #29
  %3 = getelementptr inbounds i8, ptr %2, i64 8
  %4 = load ptr, ptr %3, align 8
  %.not40 = icmp eq ptr %4, %2
  br i1 %.not40, label %._crit_edge, label %.lr.ph

.lr.ph:                                           ; preds = %1, %free_rw_handler.exit
  %.041 = phi ptr [ %.032, %free_rw_handler.exit ], [ %4, %1 ]
  %.032.in = getelementptr inbounds i8, ptr %.041, i64 8
  %.032 = load ptr, ptr %.032.in, align 8
  %5 = load ptr, ptr %.041, align 8
  %6 = getelementptr inbounds i8, ptr %5, i64 8
  store ptr %.032, ptr %6, align 8
  store ptr %5, ptr %.032, align 8
  tail call void @llvm.memset.p0.i64(ptr noundef nonnull align 8 dereferenceable(16) %.041, i8 0, i64 16, i1 false)
  %7 = getelementptr inbounds i8, ptr %.041, i64 24
  br label %8

8:                                                ; preds = %JS_FreeValueRT.exit.i, %.lr.ph
  %9 = phi i1 [ true, %.lr.ph ], [ false, %JS_FreeValueRT.exit.i ]
  %indvars.iv.i = phi i64 [ 0, %.lr.ph ], [ 1, %JS_FreeValueRT.exit.i ]
  %10 = getelementptr [2 x %struct.JSValue], ptr %7, i64 0, i64 %indvars.iv.i
  %11 = load i64, ptr %10, align 8
  %12 = getelementptr inbounds i8, ptr %10, i64 8
  %13 = load i64, ptr %12, align 8
  %14 = trunc i64 %13 to i32
  %15 = icmp ugt i32 %14, -12
  br i1 %15, label %16, label %JS_FreeValueRT.exit.i

16:                                               ; preds = %8
  %17 = inttoptr i64 %11 to ptr
  %18 = load i32, ptr %17, align 4
  %19 = add i32 %18, -1
  store i32 %19, ptr %17, align 4
  %20 = icmp slt i32 %19, 1
  br i1 %20, label %21, label %JS_FreeValueRT.exit.i

21:                                               ; preds = %16
  tail call void @__JS_FreeValueRT(ptr noundef %0, i64 %11, i64 %13) #29
  br label %JS_FreeValueRT.exit.i

JS_FreeValueRT.exit.i:                            ; preds = %21, %16, %8
  br i1 %9, label %8, label %free_rw_handler.exit, !llvm.loop !11

free_rw_handler.exit:                             ; preds = %JS_FreeValueRT.exit.i
  tail call void @js_free_rt(ptr noundef %0, ptr noundef nonnull %.041) #29
  %.not = icmp eq ptr %.032, %2
  br i1 %.not, label %._crit_edge, label %.lr.ph, !llvm.loop !12

._crit_edge:                                      ; preds = %free_rw_handler.exit, %1
  %22 = getelementptr inbounds i8, ptr %2, i64 16
  %23 = getelementptr inbounds i8, ptr %2, i64 24
  %24 = load ptr, ptr %23, align 8
  %.not3642 = icmp eq ptr %24, %22
  br i1 %.not3642, label %._crit_edge46, label %.lr.ph45

.lr.ph45:                                         ; preds = %._crit_edge, %free_sh.exit
  %.143 = phi ptr [ %.133, %free_sh.exit ], [ %24, %._crit_edge ]
  %.133.in = getelementptr inbounds i8, ptr %.143, i64 8
  %.133 = load ptr, ptr %.133.in, align 8
  %25 = load ptr, ptr %.143, align 8
  %26 = getelementptr inbounds i8, ptr %25, i64 8
  store ptr %.133, ptr %26, align 8
  store ptr %25, ptr %.133, align 8
  tail call void @llvm.memset.p0.i64(ptr noundef nonnull align 8 dereferenceable(16) %.143, i8 0, i64 16, i1 false)
  %27 = getelementptr inbounds i8, ptr %.143, i64 24
  %28 = load i64, ptr %27, align 8
  %29 = getelementptr inbounds i8, ptr %.143, i64 32
  %30 = load i64, ptr %29, align 8
  %31 = trunc i64 %30 to i32
  %32 = icmp ugt i32 %31, -12
  br i1 %32, label %33, label %free_sh.exit

33:                                               ; preds = %.lr.ph45
  %34 = inttoptr i64 %28 to ptr
  %35 = load i32, ptr %34, align 4
  %36 = add i32 %35, -1
  store i32 %36, ptr %34, align 4
  %37 = icmp slt i32 %36, 1
  br i1 %37, label %38, label %free_sh.exit

38:                                               ; preds = %33
  tail call void @__JS_FreeValueRT(ptr noundef %0, i64 %28, i64 %30) #29
  br label %free_sh.exit

free_sh.exit:                                     ; preds = %.lr.ph45, %33, %38
  tail call void @js_free_rt(ptr noundef %0, ptr noundef nonnull %.143) #29
  %.not36 = icmp eq ptr %.133, %22
  br i1 %.not36, label %._crit_edge46, label %.lr.ph45, !llvm.loop !13

._crit_edge46:                                    ; preds = %free_sh.exit, %._crit_edge
  %39 = getelementptr inbounds i8, ptr %2, i64 32
  %40 = getelementptr inbounds i8, ptr %2, i64 40
  %41 = load ptr, ptr %40, align 8
  %.not3747 = icmp eq ptr %41, %39
  br i1 %.not3747, label %._crit_edge51, label %.lr.ph50

.lr.ph50:                                         ; preds = %._crit_edge46, %free_timer.exit
  %.248 = phi ptr [ %.234, %free_timer.exit ], [ %41, %._crit_edge46 ]
  %.234.in = getelementptr inbounds i8, ptr %.248, i64 8
  %.234 = load ptr, ptr %.234.in, align 8
  %42 = load ptr, ptr %.248, align 8
  %43 = getelementptr inbounds i8, ptr %42, i64 8
  store ptr %.234, ptr %43, align 8
  store ptr %42, ptr %.234, align 8
  tail call void @llvm.memset.p0.i64(ptr noundef nonnull align 8 dereferenceable(16) %.248, i8 0, i64 16, i1 false)
  %44 = getelementptr inbounds i8, ptr %.248, i64 32
  %45 = load i64, ptr %44, align 8
  %46 = getelementptr inbounds i8, ptr %.248, i64 40
  %47 = load i64, ptr %46, align 8
  %48 = trunc i64 %47 to i32
  %49 = icmp ugt i32 %48, -12
  br i1 %49, label %50, label %free_timer.exit

50:                                               ; preds = %.lr.ph50
  %51 = inttoptr i64 %45 to ptr
  %52 = load i32, ptr %51, align 4
  %53 = add i32 %52, -1
  store i32 %53, ptr %51, align 4
  %54 = icmp slt i32 %53, 1
  br i1 %54, label %55, label %free_timer.exit

55:                                               ; preds = %50
  tail call void @__JS_FreeValueRT(ptr noundef %0, i64 %45, i64 %47) #29
  br label %free_timer.exit

free_timer.exit:                                  ; preds = %.lr.ph50, %50, %55
  tail call void @js_free_rt(ptr noundef %0, ptr noundef nonnull %.248) #29
  %.not37 = icmp eq ptr %.234, %39
  br i1 %.not37, label %._crit_edge51, label %.lr.ph50, !llvm.loop !14

._crit_edge51:                                    ; preds = %free_timer.exit, %._crit_edge46
  %56 = getelementptr inbounds i8, ptr %2, i64 72
  %57 = load ptr, ptr %56, align 8
  tail call fastcc void @js_free_message_pipe(ptr noundef %57)
  %58 = getelementptr inbounds i8, ptr %2, i64 80
  %59 = load ptr, ptr %58, align 8
  tail call fastcc void @js_free_message_pipe(ptr noundef %59)
  tail call void @free(ptr noundef %2) #29
  tail call void @JS_SetRuntimeOpaque(ptr noundef %0, ptr noundef null) #29
  ret void
}